target datalayout = "e-m:e-p270:32:32-p271:32:32-p272:64:64-i64:64-i128:128-f80:128-n8:16:32:64-S128"
target triple = "x86_64-pc-linux-gnu"

%struct.AVCodecParameters = type { i32, i32, i32, ptr, i32, ptr, i32, i32, i64, i32, i32, i32, i32, i32, i32, %struct.AVRational, %struct.AVRational, i32, i32, i32, i32, i32, i32, i32, %struct.AVChannelLayout, i32, i32, i32, i32, i32, i32 }
%struct.AVRational = type { i32, i32 }
%struct.AVChannelLayout = type { i32, i32, %union.anon, ptr }
%union.anon = type { i64 }

; Function Attrs: inlinehint nounwind willreturn memory(read) uwtable
define available_externally i32 @atoi(ptr noundef nonnull %0) #5 {
  %2 = alloca ptr, align 8
  store ptr %0, ptr %2, align 8, !tbaa !14
  %3 = load ptr, ptr %2, align 8, !tbaa !14
  %4 = call i64 @strtol(ptr noundef %3, ptr noundef null, i32 noundef 10) #9
  %5 = trunc i64 %4 to i32
  ret i32 %5
}

; Function Attrs: nounwind uwtable
define void @ff_h264_parse_framesize(ptr noundef %0, ptr noundef %1) #0 {
  %3 = alloca ptr, align 8
  %4 = alloca ptr, align 8
  %5 = alloca [50 x i8], align 16
  %6 = alloca ptr, align 8
  store ptr %0, ptr %3, align 8, !tbaa !22
  store ptr %1, ptr %4, align 8, !tbaa !14
  call void @llvm.lifetime.start.p0(i64 50, ptr %5) #9
  call void @llvm.lifetime.start.p0(i64 8, ptr %6) #9
  %7 = getelementptr inbounds [50 x i8], ptr %5, i64 0, i64 0
  store ptr %7, ptr %6, align 8, !tbaa !14
  br label %8

8:                                                ; preds = %20, %2
  %9 = load ptr, ptr %4, align 8, !tbaa !14
  %10 = load i8, ptr %9, align 1, !tbaa !16
  %11 = sext i8 %10 to i32
  %12 = icmp ne i32 %11, 0
  br i1 %12, label %13, label %18

13:                                               ; preds = %8
  %14 = load ptr, ptr %4, align 8, !tbaa !14
  %15 = load i8, ptr %14, align 1, !tbaa !16
  %16 = sext i8 %15 to i32
  %17 = icmp eq i32 %16, 32
  br label %18

18:                                               ; preds = %13, %8
  %19 = phi i1 [ false, %8 ], [ %17, %13 ]
  br i1 %19, label %20, label %23

20:                                               ; preds = %18
  %21 = load ptr, ptr %4, align 8, !tbaa !14
  %22 = getelementptr inbounds nuw i8, ptr %21, i32 1
  store ptr %22, ptr %4, align 8, !tbaa !14
  br label %8, !llvm.loop !24

23:                                               ; preds = %18
  br label %24

24:                                               ; preds = %36, %23
  %25 = load ptr, ptr %4, align 8, !tbaa !14
  %26 = load i8, ptr %25, align 1, !tbaa !16
  %27 = sext i8 %26 to i32
  %28 = icmp ne i32 %27, 0
  br i1 %28, label %29, label %34

29:                                               ; preds = %24
  %30 = load ptr, ptr %4, align 8, !tbaa !14
  %31 = load i8, ptr %30, align 1, !tbaa !16
  %32 = sext i8 %31 to i32
  %33 = icmp ne i32 %32, 32
  br label %34

34:                                               ; preds = %29, %24
  %35 = phi i1 [ false, %24 ], [ %33, %29 ]
  br i1 %35, label %36, label %39

36:                                               ; preds = %34
  %37 = load ptr, ptr %4, align 8, !tbaa !14
  %38 = getelementptr inbounds nuw i8, ptr %37, i32 1
  store ptr %38, ptr %4, align 8, !tbaa !14
  br label %24, !llvm.loop !25

39:                                               ; preds = %34
  br label %40

40:                                               ; preds = %52, %39
  %41 = load ptr, ptr %4, align 8, !tbaa !14
  %42 = load i8, ptr %41, align 1, !tbaa !16
  %43 = sext i8 %42 to i32
  %44 = icmp ne i32 %43, 0
  br i1 %44, label %45, label %50

45:                                               ; preds = %40
  %46 = load ptr, ptr %4, align 8, !tbaa !14
  %47 = load i8, ptr %46, align 1, !tbaa !16
  %48 = sext i8 %47 to i32
  %49 = icmp eq i32 %48, 32
  br label %50

50:                                               ; preds = %45, %40
  %51 = phi i1 [ false, %40 ], [ %49, %45 ]
  br i1 %51, label %52, label %55

52:                                               ; preds = %50
  %53 = load ptr, ptr %4, align 8, !tbaa !14
  %54 = getelementptr inbounds nuw i8, ptr %53, i32 1
  store ptr %54, ptr %4, align 8, !tbaa !14
  br label %40, !llvm.loop !26

55:                                               ; preds = %50
  br label %56

56:                                               ; preds = %75, %55
  %57 = load ptr, ptr %4, align 8, !tbaa !14
  %58 = load i8, ptr %57, align 1, !tbaa !16
  %59 = sext i8 %58 to i32
  %60 = icmp ne i32 %59, 0
  br i1 %60, label %61, label %73

61:                                               ; preds = %56
  %62 = load ptr, ptr %4, align 8, !tbaa !14
  %63 = load i8, ptr %62, align 1, !tbaa !16
  %64 = sext i8 %63 to i32
  %65 = icmp ne i32 %64, 45
  br i1 %65, label %66, label %73

66:                                               ; preds = %61
  %67 = load ptr, ptr %6, align 8, !tbaa !14
  %68 = getelementptr inbounds [50 x i8], ptr %5, i64 0, i64 0
  %69 = ptrtoint ptr %67 to i64
  %70 = ptrtoint ptr %68 to i64
  %71 = sub i64 %69, %70
  %72 = icmp ult i64 %71, 49
  br label %73

73:                                               ; preds = %66, %61, %56
  %74 = phi i1 [ false, %61 ], [ false, %56 ], [ %72, %66 ]
  br i1 %74, label %75, label %81

75:                                               ; preds = %73
  %76 = load ptr, ptr %4, align 8, !tbaa !14
  %77 = getelementptr inbounds nuw i8, ptr %76, i32 1
  store ptr %77, ptr %4, align 8, !tbaa !14
  %78 = load i8, ptr %76, align 1, !tbaa !16
  %79 = load ptr, ptr %6, align 8, !tbaa !14
  %80 = getelementptr inbounds nuw i8, ptr %79, i32 1
  store ptr %80, ptr %6, align 8, !tbaa !14
  store i8 %78, ptr %79, align 1, !tbaa !16
  br label %56, !llvm.loop !27

81:                                               ; preds = %73
  %82 = load ptr, ptr %6, align 8, !tbaa !14
  store i8 0, ptr %82, align 1, !tbaa !16
  %83 = getelementptr inbounds [50 x i8], ptr %5, i64 0, i64 0
  %84 = call i32 @atoi(ptr noundef %83) #10
  %85 = load ptr, ptr %3, align 8, !tbaa !22
  %86 = getelementptr inbounds nuw %struct.AVCodecParameters, ptr %85, i32 0, i32 13
  store i32 %84, ptr %86, align 8, !tbaa !28
  %87 = load ptr, ptr %4, align 8, !tbaa !14
  %88 = getelementptr inbounds i8, ptr %87, i64 1
  %89 = call i32 @atoi(ptr noundef %88) #10
  %90 = load ptr, ptr %3, align 8, !tbaa !22
  %91 = getelementptr inbounds nuw %struct.AVCodecParameters, ptr %90, i32 0, i32 14
  store i32 %89, ptr %91, align 4, !tbaa !34
  call void @llvm.lifetime.end.p0(i64 8, ptr %6) #9
  call void @llvm.lifetime.end.p0(i64 50, ptr %5) #9
  ret void
}