; Function Attrs: nofree norecurse nounwind uwtable
define void @ff_h264_parse_framesize(ptr noundef writeonly captures(none) %0, ptr noundef readonly captures(none) %1) local_unnamed_addr #5 {
  %3 = alloca [50 x i8], align 16
  call void @llvm.lifetime.start.p0(i64 50, ptr nonnull %3) #10
  br label %4

4:                                                ; preds = %4, %2
  %.024 = phi ptr [ %1, %2 ], [ %6, %4 ]
  %5 = load i8, ptr %.024, align 1, !tbaa !4
  %cond = icmp eq i8 %5, 32
  %6 = getelementptr inbounds nuw i8, ptr %.024, i64 1
  br i1 %cond, label %4, label %.critedge, !llvm.loop !15

.critedge:                                        ; preds = %4, %8
  %7 = phi i8 [ %.pr, %8 ], [ %5, %4 ]
  %.1 = phi ptr [ %9, %8 ], [ %.024, %4 ]
  switch i8 %7, label %8 [
    i8 0, label %.critedge2.preheader
    i8 32, label %.critedge2.preheader
  ]

.critedge2.preheader:                             ; preds = %.critedge, %.critedge
  br label %.critedge2

8:                                                ; preds = %.critedge
  %9 = getelementptr inbounds nuw i8, ptr %.1, i64 1
  %.pr = load i8, ptr %9, align 1, !tbaa !4
  br label %.critedge, !llvm.loop !16

.critedge2:                                       ; preds = %.critedge2.preheader, %.critedge2
  %.2 = phi ptr [ %11, %.critedge2 ], [ %.1, %.critedge2.preheader ]
  %10 = load i8, ptr %.2, align 1, !tbaa !4
  %cond34 = icmp eq i8 %10, 32
  %11 = getelementptr inbounds nuw i8, ptr %.2, i64 1
  br i1 %cond34, label %.critedge2, label %.critedge4.preheader, !llvm.loop !17

.critedge4.preheader:                             ; preds = %.critedge2
  %12 = ptrtoint ptr %3 to i64
  br label %.critedge4

.critedge4:                                       ; preds = %.critedge4.preheader, %18
  %13 = phi i8 [ %.pr35, %18 ], [ %10, %.critedge4.preheader ]
  %.3 = phi ptr [ %19, %18 ], [ %.2, %.critedge4.preheader ]
  %.0 = phi ptr [ %20, %18 ], [ %3, %.critedge4.preheader ]
  switch i8 %13, label %14 [
    i8 0, label %.critedge6
    i8 45, label %.critedge6
  ]

14:                                               ; preds = %.critedge4
  %15 = ptrtoint ptr %.0 to i64
  %16 = sub i64 %15, %12
  %17 = icmp ult i64 %16, 49
  br i1 %17, label %18, label %.critedge6

18:                                               ; preds = %14
  %19 = getelementptr inbounds nuw i8, ptr %.3, i64 1
  %20 = getelementptr inbounds nuw i8, ptr %.0, i64 1
  store i8 %13, ptr %.0, align 1, !tbaa !4
  %.pr35 = load i8, ptr %19, align 1, !tbaa !4
  br label %.critedge4, !llvm.loop !18

.critedge6:                                       ; preds = %.critedge4, %.critedge4, %14
  store i8 0, ptr %.0, align 1, !tbaa !4
  %21 = call i64 @strtol(ptr noundef nonnull captures(none) %3, ptr noundef null, i32 noundef 10) #10
  %22 = trunc i64 %21 to i32
  %23 = getelementptr inbounds nuw i8, ptr %0, i64 72
  store i32 %22, ptr %23, align 8, !tbaa !19
  %24 = getelementptr inbounds nuw i8, ptr %.3, i64 1
  %25 = call i64 @strtol(ptr noundef nonnull captures(none) %24, ptr noundef null, i32 noundef 10) #10
  %26 = trunc i64 %25 to i32
  %27 = getelementptr inbounds nuw i8, ptr %0, i64 76
  store i32 %26, ptr %27, align 4, !tbaa !25
  call void @llvm.lifetime.end.p0(i64 50, ptr nonnull %3) #10
  ret void
}